target datalayout = "e-m:e-p270:32:32-p271:32:32-p272:64:64-i64:64-i128:128-f80:128-n8:16:32:64-S128"
target triple = "x86_64-pc-linux-gnu"

%struct.DdManager = type { %struct.DdNode, ptr, ptr, ptr, ptr, ptr, ptr, ptr, i32, i32, double, double, double, i32, i32, i32, i32, i32, i32, ptr, ptr, %struct.DdSubtable, i32, i32, i32, i32, i32, i32, i32, double, i32, i32, i32, ptr, i64, double, i32, ptr, ptr, ptr, ptr, ptr, ptr, ptr, i32, ptr, ptr, ptr, ptr, ptr, ptr, i32, i32, i32, double, i32, i32, i32, i32, double, double, i32, i32, i32, i32, i32, i32, i32, i32, i32, ptr, ptr, i32, i32, i32, i32, i32, i32, ptr, ptr, ptr, ptr, ptr, ptr, ptr, ptr, i32, i64, i64, i64, i32, i64, i64, double, double, double, double, double, double, i32, ptr, ptr, i64 }
%struct.DdNode = type { i32, i32, ptr, %union.anon, i64 }
%union.anon = type { %struct.DdChildren }
%struct.DdChildren = type { ptr, ptr }
%struct.DdSubtable = type { ptr, i32, i32, i32, i32, i32, i32, i32, i32, i32, i32, i32 }
%struct.DdLocalCache = type { ptr, i32, i32, i32, i32, double, double, double, i32, ptr, ptr }

; Function Attrs: nounwind uwtable
define internal void @cuddLocalCacheAddToList(ptr noundef %0) #0 {
  %2 = alloca ptr, align 8
  %3 = alloca ptr, align 8
  store ptr %0, ptr %2, align 8, !tbaa !10
  call void @llvm.lifetime.start.p0(i64 8, ptr %3) #10
  %4 = load ptr, ptr %2, align 8, !tbaa !10
  %5 = getelementptr inbounds nuw %struct.DdLocalCache, ptr %4, i32 0, i32 9
  %6 = load ptr, ptr %5, align 8, !tbaa !28
  store ptr %6, ptr %3, align 8, !tbaa !3
  %7 = load ptr, ptr %3, align 8, !tbaa !3
  %8 = getelementptr inbounds nuw %struct.DdManager, ptr %7, i32 0, i32 78
  %9 = load ptr, ptr %8, align 8, !tbaa !43
  %10 = load ptr, ptr %2, align 8, !tbaa !10
  %11 = getelementptr inbounds nuw %struct.DdLocalCache, ptr %10, i32 0, i32 10
  store ptr %9, ptr %11, align 8, !tbaa !44
  %12 = load ptr, ptr %2, align 8, !tbaa !10
  %13 = load ptr, ptr %3, align 8, !tbaa !3
  %14 = getelementptr inbounds nuw %struct.DdManager, ptr %13, i32 0, i32 78
  store ptr %12, ptr %14, align 8, !tbaa !43
  call void @llvm.lifetime.end.p0(i64 8, ptr %3) #10
  ret void
}

; Function Attrs: nounwind uwtable
define ptr @cuddLocalCacheInit(ptr noundef %0, i32 noundef %1, i32 noundef %2, i32 noundef %3) #0 {
  %5 = alloca ptr, align 8
  %6 = alloca ptr, align 8
  %7 = alloca i32, align 4
  %8 = alloca i32, align 4
  %9 = alloca i32, align 4
  %10 = alloca ptr, align 8
  %11 = alloca i32, align 4
  %12 = alloca i32, align 4
  store ptr %0, ptr %6, align 8, !tbaa !3
  store i32 %1, ptr %7, align 4, !tbaa !8
  store i32 %2, ptr %8, align 4, !tbaa !8
  store i32 %3, ptr %9, align 4, !tbaa !8
  call void @llvm.lifetime.start.p0(i64 8, ptr %10) #10
  call void @llvm.lifetime.start.p0(i64 4, ptr %11) #10
  %13 = call noalias ptr @malloc(i64 noundef 72) #11
  store ptr %13, ptr %10, align 8, !tbaa !10
  %14 = load ptr, ptr %10, align 8, !tbaa !10
  %15 = icmp eq ptr %14, null
  br i1 %15, label %16, label %19

16:                                               ; preds = %4
  %17 = load ptr, ptr %6, align 8, !tbaa !3
  %18 = getelementptr inbounds nuw %struct.DdManager, ptr %17, i32 0, i32 86
  store i32 1, ptr %18, align 8, !tbaa !12
  store ptr null, ptr %5, align 8
  store i32 1, ptr %12, align 4
  br label %138

19:                                               ; preds = %4
  %20 = load ptr, ptr %6, align 8, !tbaa !3
  %21 = load ptr, ptr %10, align 8, !tbaa !10
  %22 = getelementptr inbounds nuw %struct.DdLocalCache, ptr %21, i32 0, i32 9
  store ptr %20, ptr %22, align 8, !tbaa !28
  %23 = load i32, ptr %7, align 4, !tbaa !8
  %24 = load ptr, ptr %10, align 8, !tbaa !10
  %25 = getelementptr inbounds nuw %struct.DdLocalCache, ptr %24, i32 0, i32 2
  store i32 %23, ptr %25, align 4, !tbaa !31
  %26 = load i32, ptr %7, align 4, !tbaa !8
  %27 = add i32 %26, 1
  %28 = zext i32 %27 to i64
  %29 = mul i64 %28, 8
  %30 = trunc i64 %29 to i32
  %31 = load ptr, ptr %10, align 8, !tbaa !10
  %32 = getelementptr inbounds nuw %struct.DdLocalCache, ptr %31, i32 0, i32 1
  store i32 %30, ptr %32, align 8, !tbaa !32
  %33 = load ptr, ptr %6, align 8, !tbaa !3
  %34 = getelementptr inbounds nuw %struct.DdManager, ptr %33, i32 0, i32 22
  %35 = load i32, ptr %34, align 8, !tbaa !33
  %36 = udiv i32 %35, 2
  %37 = load i32, ptr %8, align 4, !tbaa !8
  %38 = icmp ugt i32 %36, %37
  br i1 %38, label %39, label %44

39:                                               ; preds = %19
  %40 = load ptr, ptr %6, align 8, !tbaa !3
  %41 = getelementptr inbounds nuw %struct.DdManager, ptr %40, i32 0, i32 22
  %42 = load i32, ptr %41, align 8, !tbaa !33
  %43 = udiv i32 %42, 2
  br label %46

44:                                               ; preds = %19
  %45 = load i32, ptr %8, align 4, !tbaa !8
  br label %46

46:                                               ; preds = %44, %39
  %47 = phi i32 [ %43, %39 ], [ %45, %44 ]
  %48 = call i32 @cuddComputeFloorLog2(i32 noundef %47)
  store i32 %48, ptr %11, align 4, !tbaa !8
  %49 = load i32, ptr %11, align 4, !tbaa !8
  %50 = shl i32 1, %49
  store i32 %50, ptr %8, align 4, !tbaa !8
  %51 = load i32, ptr %8, align 4, !tbaa !8
  %52 = load ptr, ptr %10, align 8, !tbaa !10
  %53 = getelementptr inbounds nuw %struct.DdLocalCache, ptr %52, i32 0, i32 1
  %54 = load i32, ptr %53, align 8, !tbaa !32
  %55 = mul i32 %51, %54
  %56 = zext i32 %55 to i64
  %57 = mul i64 1, %56
  %58 = call noalias ptr @malloc(i64 noundef %57) #11
  %59 = load ptr, ptr %10, align 8, !tbaa !10
  %60 = getelementptr inbounds nuw %struct.DdLocalCache, ptr %59, i32 0, i32 0
  store ptr %58, ptr %60, align 8, !tbaa !34
  %61 = load ptr, ptr %10, align 8, !tbaa !10
  %62 = getelementptr inbounds nuw %struct.DdLocalCache, ptr %61, i32 0, i32 0
  %63 = load ptr, ptr %62, align 8, !tbaa !34
  %64 = icmp eq ptr %63, null
  br i1 %64, label %65, label %74

65:                                               ; preds = %46
  %66 = load ptr, ptr %6, align 8, !tbaa !3
  %67 = getelementptr inbounds nuw %struct.DdManager, ptr %66, i32 0, i32 86
  store i32 1, ptr %67, align 8, !tbaa !12
  %68 = load ptr, ptr %10, align 8, !tbaa !10
  %69 = icmp ne ptr %68, null
  br i1 %69, label %70, label %72

70:                                               ; preds = %65
  %71 = load ptr, ptr %10, align 8, !tbaa !10
  call void @free(ptr noundef %71) #10
  store ptr null, ptr %10, align 8, !tbaa !10
  br label %73

72:                                               ; preds = %65
  br label %73

73:                                               ; preds = %72, %70
  store ptr null, ptr %5, align 8
  store i32 1, ptr %12, align 4
  br label %138

74:                                               ; preds = %46
  %75 = load i32, ptr %8, align 4, !tbaa !8
  %76 = load ptr, ptr %10, align 8, !tbaa !10
  %77 = getelementptr inbounds nuw %struct.DdLocalCache, ptr %76, i32 0, i32 3
  store i32 %75, ptr %77, align 8, !tbaa !35
  %78 = load i32, ptr %11, align 4, !tbaa !8
  %79 = sext i32 %78 to i64
  %80 = sub i64 32, %79
  %81 = trunc i64 %80 to i32
  %82 = load ptr, ptr %10, align 8, !tbaa !10
  %83 = getelementptr inbounds nuw %struct.DdLocalCache, ptr %82, i32 0, i32 4
  store i32 %81, ptr %83, align 4, !tbaa !36
  %84 = load ptr, ptr %6, align 8, !tbaa !3
  %85 = getelementptr inbounds nuw %struct.DdManager, ptr %84, i32 0, i32 22
  %86 = load i32, ptr %85, align 8, !tbaa !33
  %87 = load i32, ptr %9, align 4, !tbaa !8
  %88 = icmp ult i32 %86, %87
  br i1 %88, label %89, label %93

89:                                               ; preds = %74
  %90 = load ptr, ptr %6, align 8, !tbaa !3
  %91 = getelementptr inbounds nuw %struct.DdManager, ptr %90, i32 0, i32 22
  %92 = load i32, ptr %91, align 8, !tbaa !33
  br label %95

93:                                               ; preds = %74
  %94 = load i32, ptr %9, align 4, !tbaa !8
  br label %95

95:                                               ; preds = %93, %89
  %96 = phi i32 [ %92, %89 ], [ %94, %93 ]
  %97 = load ptr, ptr %10, align 8, !tbaa !10
  %98 = getelementptr inbounds nuw %struct.DdLocalCache, ptr %97, i32 0, i32 8
  store i32 %96, ptr %98, align 8, !tbaa !37
  %99 = load ptr, ptr %6, align 8, !tbaa !3
  %100 = getelementptr inbounds nuw %struct.DdManager, ptr %99, i32 0, i32 12
  %101 = load double, ptr %100, align 8, !tbaa !38
  %102 = load ptr, ptr %10, align 8, !tbaa !10
  %103 = getelementptr inbounds nuw %struct.DdLocalCache, ptr %102, i32 0, i32 6
  store double %101, ptr %103, align 8, !tbaa !39
  %104 = load i32, ptr %8, align 4, !tbaa !8
  %105 = uitofp i32 %104 to double
  %106 = load ptr, ptr %10, align 8, !tbaa !10
  %107 = getelementptr inbounds nuw %struct.DdLocalCache, ptr %106, i32 0, i32 6
  %108 = load double, ptr %107, align 8, !tbaa !39
  %109 = call double @llvm.fmuladd.f64(double %105, double %108, double 1.000000e+00)
  %110 = fptosi double %109 to i32
  %111 = sitofp i32 %110 to double
  %112 = load ptr, ptr %10, align 8, !tbaa !10
  %113 = getelementptr inbounds nuw %struct.DdLocalCache, ptr %112, i32 0, i32 5
  store double %111, ptr %113, align 8, !tbaa !40
  %114 = load ptr, ptr %10, align 8, !tbaa !10
  %115 = getelementptr inbounds nuw %struct.DdLocalCache, ptr %114, i32 0, i32 7
  store double 0.000000e+00, ptr %115, align 8, !tbaa !41
  %116 = load i32, ptr %8, align 4, !tbaa !8
  %117 = load ptr, ptr %10, align 8, !tbaa !10
  %118 = getelementptr inbounds nuw %struct.DdLocalCache, ptr %117, i32 0, i32 1
  %119 = load i32, ptr %118, align 8, !tbaa !32
  %120 = mul i32 %116, %119
  %121 = zext i32 %120 to i64
  %122 = add i64 %121, 72
  %123 = load ptr, ptr %6, align 8, !tbaa !3
  %124 = getelementptr inbounds nuw %struct.DdManager, ptr %123, i32 0, i32 87
  %125 = load i64, ptr %124, align 8, !tbaa !42
  %126 = add i64 %125, %122
  store i64 %126, ptr %124, align 8, !tbaa !42
  %127 = load ptr, ptr %10, align 8, !tbaa !10
  %128 = getelementptr inbounds nuw %struct.DdLocalCache, ptr %127, i32 0, i32 0
  %129 = load ptr, ptr %128, align 8, !tbaa !34
  %130 = load i32, ptr %8, align 4, !tbaa !8
  %131 = load ptr, ptr %10, align 8, !tbaa !10
  %132 = getelementptr inbounds nuw %struct.DdLocalCache, ptr %131, i32 0, i32 1
  %133 = load i32, ptr %132, align 8, !tbaa !32
  %134 = mul i32 %130, %133
  %135 = zext i32 %134 to i64
  call void @llvm.memset.p0.i64(ptr align 8 %129, i8 0, i64 %135, i1 false)
  %136 = load ptr, ptr %10, align 8, !tbaa !10
  call void @cuddLocalCacheAddToList(ptr noundef %136)
  %137 = load ptr, ptr %10, align 8, !tbaa !10
  store ptr %137, ptr %5, align 8
  store i32 1, ptr %12, align 4
  br label %138

138:                                              ; preds = %95, %73, %16
  call void @llvm.lifetime.end.p0(i64 4, ptr %11) #10
  call void @llvm.lifetime.end.p0(i64 8, ptr %10) #10
  %139 = load ptr, ptr %5, align 8
  ret ptr %139
}