; Function Attrs: nounwind uwtable
define noundef ptr @cuddLocalCacheInit(ptr noundef %0, i32 noundef %1, i32 noundef %2, i32 noundef %3) local_unnamed_addr #0 {
  %5 = tail call noalias dereferenceable_or_null(72) ptr @malloc(i64 noundef 72) #12
  %6 = icmp eq ptr %5, null
  br i1 %6, label %7, label %9

7:                                                ; preds = %4
  %8 = getelementptr inbounds nuw i8, ptr %0, i64 624
  store i32 1, ptr %8, align 8, !tbaa !3
  br label %47

9:                                                ; preds = %4
  %10 = getelementptr inbounds nuw i8, ptr %5, i64 56
  store ptr %0, ptr %10, align 8, !tbaa !24
  %11 = getelementptr inbounds nuw i8, ptr %5, i64 12
  store i32 %1, ptr %11, align 4, !tbaa !28
  %12 = shl i32 %1, 3
  %13 = add i32 %12, 8
  %14 = getelementptr inbounds nuw i8, ptr %5, i64 8
  store i32 %13, ptr %14, align 8, !tbaa !29
  %15 = getelementptr inbounds nuw i8, ptr %0, i64 224
  %16 = load i32, ptr %15, align 8, !tbaa !30
  %17 = lshr i32 %16, 1
  %. = tail call i32 @llvm.umax.i32(i32 %17, i32 %2)
  %18 = tail call i32 @cuddComputeFloorLog2(i32 noundef %.) #13
  %19 = shl i32 %13, %18
  %20 = zext i32 %19 to i64
  %calloc = tail call ptr @calloc(i64 1, i64 %20)
  store ptr %calloc, ptr %5, align 8, !tbaa !31
  %21 = icmp eq ptr %calloc, null
  br i1 %21, label %22, label %24

22:                                               ; preds = %9
  %23 = getelementptr inbounds nuw i8, ptr %0, i64 624
  store i32 1, ptr %23, align 8, !tbaa !3
  tail call void @free(ptr noundef nonnull %5) #13
  br label %47

24:                                               ; preds = %9
  %25 = shl nuw i32 1, %18
  %26 = getelementptr inbounds nuw i8, ptr %5, i64 16
  store i32 %25, ptr %26, align 8, !tbaa !32
  %27 = sub i32 32, %18
  %28 = getelementptr inbounds nuw i8, ptr %5, i64 20
  store i32 %27, ptr %28, align 4, !tbaa !33
  %29 = load i32, ptr %15, align 8, !tbaa !30
  %.48 = tail call i32 @llvm.umin.i32(i32 %29, i32 %3)
  %30 = getelementptr inbounds nuw i8, ptr %5, i64 48
  store i32 %.48, ptr %30, align 8, !tbaa !34
  %31 = getelementptr inbounds nuw i8, ptr %0, i64 120
  %32 = load double, ptr %31, align 8, !tbaa !35
  %33 = getelementptr inbounds nuw i8, ptr %5, i64 32
  store double %32, ptr %33, align 8, !tbaa !36
  %34 = uitofp i32 %25 to double
  %35 = tail call double @llvm.fmuladd.f64(double %34, double %32, double 1.000000e+00)
  %36 = fptosi double %35 to i32
  %37 = sitofp i32 %36 to double
  %38 = getelementptr inbounds nuw i8, ptr %5, i64 24
  store double %37, ptr %38, align 8, !tbaa !37
  %39 = getelementptr inbounds nuw i8, ptr %5, i64 40
  store double 0.000000e+00, ptr %39, align 8, !tbaa !38
  %40 = add nuw nsw i64 %20, 72
  %41 = getelementptr inbounds nuw i8, ptr %0, i64 632
  %42 = load i64, ptr %41, align 8, !tbaa !39
  %43 = add i64 %40, %42
  store i64 %43, ptr %41, align 8, !tbaa !39
  %44 = getelementptr inbounds nuw i8, ptr %0, i64 560
  %45 = load ptr, ptr %44, align 8, !tbaa !40
  %46 = getelementptr inbounds nuw i8, ptr %5, i64 64
  store ptr %45, ptr %46, align 8, !tbaa !41
  store ptr %5, ptr %44, align 8, !tbaa !40
  br label %47

47:                                               ; preds = %24, %22, %7
  %.0 = phi ptr [ null, %7 ], [ null, %22 ], [ %5, %24 ]
  ret ptr %.0
}